; Function Attrs: mustprogress nofree norecurse nosync nounwind willreturn memory(read, inaccessiblemem: none) uwtable
define hidden signext range(i8 0, 2) i8 @nfaExecMcSheng8_inAnyAccept(ptr noundef readonly captures(none) %0, ptr noundef readonly captures(none) %1) local_unnamed_addr #3 {
  %3 = getelementptr inbounds nuw i8, ptr %1, i64 16
  %4 = load ptr, ptr %3, align 8
  %5 = load i8, ptr %4, align 1
  %6 = getelementptr inbounds nuw i8, ptr %0, i64 76
  %7 = load i32, ptr %6, align 4
  %8 = zext i32 %7 to i64
  %9 = getelementptr inbounds nuw i8, ptr %0, i64 %8
  %10 = zext i8 %5 to i64
  %11 = getelementptr inbounds nuw %struct.mstate_aux, ptr %9, i64 %10
  %12 = load i32, ptr %11, align 4
  %13 = icmp ne i32 %12, 0
  %14 = zext i1 %13 to i8
  ret i8 %14
}